target datalayout = "e-m:e-p270:32:32-p271:32:32-p272:64:64-i64:64-i128:128-f80:128-n8:16:32:64-S128"
target triple = "x86_64-pc-linux-gnu"

%struct.mpd_context_t = type { i64, i64, i64, i32, i32, i32, i32, i32, i32 }

@mpd_traphandler = hidden global ptr @mpd_dflt_traphandler, align 8

; Function Attrs: nounwind uwtable
define hidden void @mpd_addstatus_raise(ptr noundef %0, i32 noundef %1) #0 {
  %3 = alloca ptr, align 8
  %4 = alloca i32, align 4
  store ptr %0, ptr %3, align 8, !tbaa !3
  store i32 %1, ptr %4, align 4, !tbaa !10
  %5 = load i32, ptr %4, align 4, !tbaa !10
  %6 = load ptr, ptr %3, align 8, !tbaa !3
  %7 = getelementptr inbounds nuw %struct.mpd_context_t, ptr %6, i32 0, i32 4
  %8 = load i32, ptr %7, align 4, !tbaa !20
  %9 = or i32 %8, %5
  store i32 %9, ptr %7, align 4, !tbaa !20
  %10 = load i32, ptr %4, align 4, !tbaa !10
  %11 = load ptr, ptr %3, align 8, !tbaa !3
  %12 = getelementptr inbounds nuw %struct.mpd_context_t, ptr %11, i32 0, i32 3
  %13 = load i32, ptr %12, align 8, !tbaa !19
  %14 = and i32 %10, %13
  %15 = icmp ne i32 %14, 0
  br i1 %15, label %16, label %26

16:                                               ; preds = %2
  %17 = load i32, ptr %4, align 4, !tbaa !10
  %18 = load ptr, ptr %3, align 8, !tbaa !3
  %19 = getelementptr inbounds nuw %struct.mpd_context_t, ptr %18, i32 0, i32 3
  %20 = load i32, ptr %19, align 8, !tbaa !19
  %21 = and i32 %17, %20
  %22 = load ptr, ptr %3, align 8, !tbaa !3
  %23 = getelementptr inbounds nuw %struct.mpd_context_t, ptr %22, i32 0, i32 5
  store i32 %21, ptr %23, align 8, !tbaa !21
  %24 = load ptr, ptr @mpd_traphandler, align 8, !tbaa !24
  %25 = load ptr, ptr %3, align 8, !tbaa !3
  call void %24(ptr noundef %25)
  br label %26

26:                                               ; preds = %16, %2
  ret void
}