; Function Attrs: nounwind uwtable
define hidden void @mpd_addstatus_raise(ptr noundef %0, i32 noundef %1) local_unnamed_addr #0 {
  %3 = getelementptr inbounds nuw i8, ptr %0, i64 28
  %4 = load i32, ptr %3, align 4, !tbaa !17
  %5 = or i32 %4, %1
  store i32 %5, ptr %3, align 4, !tbaa !17
  %6 = getelementptr inbounds nuw i8, ptr %0, i64 24
  %7 = load i32, ptr %6, align 8, !tbaa !16
  %8 = and i32 %7, %1
  %.not = icmp eq i32 %8, 0
  br i1 %.not, label %12, label %9

9:                                                ; preds = %2
  %10 = getelementptr inbounds nuw i8, ptr %0, i64 32
  store i32 %8, ptr %10, align 8, !tbaa !18
  %11 = load ptr, ptr @mpd_traphandler, align 8, !tbaa !21
  tail call void %11(ptr noundef nonnull %0) #9
  br label %12

12:                                               ; preds = %9, %2
  ret void
}